target datalayout = "e-m:e-p270:32:32-p271:32:32-p272:64:64-i64:64-i128:128-f80:128-n8:16:32:64-S128"
target triple = "x86_64-pc-linux-gnu"

%struct._grid = type { ptr, ptr, ptr, i32, ptr, ptr }
%struct._block = type { ptr, ptr, ptr, ptr }

; Function Attrs: nounwind uwtable
define internal void @freeBlock(ptr noundef %0) #0 {
  %2 = alloca ptr, align 8
  %3 = alloca ptr, align 8
  store ptr %0, ptr %2, align 8, !tbaa !17
  %4 = load ptr, ptr %2, align 8, !tbaa !17
  %5 = icmp ne ptr %4, null
  br i1 %5, label %6, label %15

6:                                                ; preds = %1
  call void @llvm.lifetime.start.p0(i64 8, ptr %3) #9
  %7 = load ptr, ptr %2, align 8, !tbaa !17
  %8 = getelementptr inbounds nuw %struct._block, ptr %7, i32 0, i32 3
  %9 = load ptr, ptr %8, align 8, !tbaa !18
  store ptr %9, ptr %3, align 8, !tbaa !17
  %10 = load ptr, ptr %2, align 8, !tbaa !17
  %11 = getelementptr inbounds nuw %struct._block, ptr %10, i32 0, i32 0
  %12 = load ptr, ptr %11, align 8, !tbaa !20
  call void @free(ptr noundef %12) #9
  %13 = load ptr, ptr %2, align 8, !tbaa !17
  call void @free(ptr noundef %13) #9
  %14 = load ptr, ptr %3, align 8, !tbaa !17
  call void @freeBlock(ptr noundef %14)
  call void @llvm.lifetime.end.p0(i64 8, ptr %3) #9
  br label %15

15:                                               ; preds = %6, %1
  ret void
}

; Function Attrs: nounwind uwtable
define void @delGrid(ptr noundef %0) #0 {
  %2 = alloca ptr, align 8
  store ptr %0, ptr %2, align 8, !tbaa !7
  %3 = load ptr, ptr %2, align 8, !tbaa !7
  %4 = getelementptr inbounds nuw %struct._grid, ptr %3, i32 0, i32 0
  %5 = load ptr, ptr %4, align 8, !tbaa !11
  %6 = call i32 @dtclose(ptr noundef %5)
  %7 = load ptr, ptr %2, align 8, !tbaa !7
  %8 = getelementptr inbounds nuw %struct._grid, ptr %7, i32 0, i32 1
  %9 = load ptr, ptr %8, align 8, !tbaa !16
  call void @freeBlock(ptr noundef %9)
  %10 = load ptr, ptr %2, align 8, !tbaa !7
  %11 = getelementptr inbounds nuw %struct._grid, ptr %10, i32 0, i32 4
  %12 = load ptr, ptr %11, align 8, !tbaa !24
  call void @free(ptr noundef %12) #9
  ret void
}