; Function Attrs: nounwind uwtable
define void @delGrid(ptr noundef readonly captures(none) %0) local_unnamed_addr #0 {
  %2 = load ptr, ptr %0, align 8, !tbaa !7
  %3 = tail call i32 @dtclose(ptr noundef %2) #13
  %4 = getelementptr inbounds nuw i8, ptr %0, i64 8
  %5 = load ptr, ptr %4, align 8, !tbaa !13
  %.not5.i = icmp eq ptr %5, null
  br i1 %.not5.i, label %freeBlock.exit, label %tailrecurse.i

tailrecurse.i:                                    ; preds = %1, %tailrecurse.i
  %.tr6.i = phi ptr [ %7, %tailrecurse.i ], [ %5, %1 ]
  %6 = getelementptr inbounds nuw i8, ptr %.tr6.i, i64 24
  %7 = load ptr, ptr %6, align 8, !tbaa !29
  %8 = load ptr, ptr %.tr6.i, align 8, !tbaa !16
  tail call void @free(ptr noundef %8) #13
  tail call void @free(ptr noundef nonnull %.tr6.i) #13
  %.not.i = icmp eq ptr %7, null
  br i1 %.not.i, label %freeBlock.exit, label %tailrecurse.i

freeBlock.exit:                                   ; preds = %tailrecurse.i, %1
  %9 = getelementptr inbounds nuw i8, ptr %0, i64 32
  %10 = load ptr, ptr %9, align 8, !tbaa !21
  tail call void @free(ptr noundef %10) #13
  ret void
}